target datalayout = "e-m:e-p270:32:32-p271:32:32-p272:64:64-i64:64-i128:128-f80:128-n8:16:32:64-S128"
target triple = "x86_64-pc-linux-gnu"

@.str.18 = private unnamed_addr constant [30 x i8] c"../openssl/test/threadstest.c\00", align 1
@global_lock = internal global ptr null, align 8
@multi_success = internal global i32 0, align 4
@pemdataraw = internal global [10 x ptr] [ptr @.str.162, ptr @.str.163, ptr @.str.164, ptr @.str.165, ptr @.str.166, ptr @.str.167, ptr @.str.168, ptr @.str.169, ptr @.str.170, ptr null], align 16

; Function Attrs: nounwind uwtable
define internal void @multi_set_success(i32 noundef %0) #0 {
  %2 = alloca i32, align 4
  store i32 %0, ptr %2, align 4, !tbaa !4
  %3 = load ptr, ptr @global_lock, align 8, !tbaa !13
  %4 = call i32 @CRYPTO_THREAD_write_lock(ptr noundef %3)
  %5 = icmp eq i32 %4, 0
  br i1 %5, label %6, label %8

6:                                                ; preds = %1
  %7 = load i32, ptr %2, align 4, !tbaa !4
  store i32 %7, ptr @multi_success, align 4, !tbaa !4
  br label %12

8:                                                ; preds = %1
  %9 = load i32, ptr %2, align 4, !tbaa !4
  store i32 %9, ptr @multi_success, align 4, !tbaa !4
  %10 = load ptr, ptr @global_lock, align 8, !tbaa !13
  %11 = call i32 @CRYPTO_THREAD_unlock(ptr noundef %10)
  br label %12

12:                                               ; preds = %8, %6
  ret void
}

; Function Attrs: nounwind uwtable
define internal void @test_pem_read_one() #0 {
  %1 = alloca ptr, align 8
  %2 = alloca ptr, align 8
  %3 = alloca ptr, align 8
  %4 = alloca i64, align 8
  call void @llvm.lifetime.start.p0(i64 8, ptr %1) #10
  store ptr null, ptr %1, align 8, !tbaa !18
  call void @llvm.lifetime.start.p0(i64 8, ptr %2) #10
  store ptr null, ptr %2, align 8, !tbaa !26
  call void @llvm.lifetime.start.p0(i64 8, ptr %3) #10
  call void @llvm.lifetime.start.p0(i64 8, ptr %4) #10
  %5 = call ptr @glue_strings(ptr noundef @pemdataraw, ptr noundef %4)
  store ptr %5, ptr %3, align 8, !tbaa !8
  %6 = load ptr, ptr %3, align 8, !tbaa !8
  %7 = icmp eq ptr %6, null
  br i1 %7, label %8, label %9

8:                                                ; preds = %0
  call void @multi_set_success(i32 noundef 0)
  br label %24

9:                                                ; preds = %0
  %10 = load ptr, ptr %3, align 8, !tbaa !8
  %11 = load i64, ptr %4, align 8, !tbaa !14
  %12 = trunc i64 %11 to i32
  %13 = call ptr @BIO_new_mem_buf(ptr noundef %10, i32 noundef %12)
  store ptr %13, ptr %2, align 8, !tbaa !26
  %14 = load ptr, ptr %2, align 8, !tbaa !26
  %15 = icmp eq ptr %14, null
  br i1 %15, label %16, label %17

16:                                               ; preds = %9
  call void @multi_set_success(i32 noundef 0)
  br label %24

17:                                               ; preds = %9
  %18 = load ptr, ptr %2, align 8, !tbaa !26
  %19 = call ptr @PEM_read_bio_PrivateKey(ptr noundef %18, ptr noundef null, ptr noundef null, ptr noundef null)
  store ptr %19, ptr %1, align 8, !tbaa !18
  %20 = load ptr, ptr %1, align 8, !tbaa !18
  %21 = icmp eq ptr %20, null
  br i1 %21, label %22, label %23

22:                                               ; preds = %17
  call void @multi_set_success(i32 noundef 0)
  br label %23

23:                                               ; preds = %22, %17
  br label %24

24:                                               ; preds = %23, %16, %8
  %25 = load ptr, ptr %1, align 8, !tbaa !18
  call void @EVP_PKEY_free(ptr noundef %25)
  %26 = load ptr, ptr %2, align 8, !tbaa !26
  %27 = call i32 @BIO_free(ptr noundef %26)
  %28 = load ptr, ptr %3, align 8, !tbaa !8
  call void @CRYPTO_free(ptr noundef %28, ptr noundef @.str.18, i32 noundef 1261)
  call void @llvm.lifetime.end.p0(i64 8, ptr %4) #10
  call void @llvm.lifetime.end.p0(i64 8, ptr %3) #10
  call void @llvm.lifetime.end.p0(i64 8, ptr %2) #10
  call void @llvm.lifetime.end.p0(i64 8, ptr %1) #10
  ret void
}