; Function Attrs: nounwind uwtable
define internal void @test_pem_read_one() #1 {
  %1 = alloca i64, align 8
  call void @llvm.lifetime.start.p0(i64 8, ptr nonnull %1) #11
  %2 = call ptr @glue_strings(ptr noundef nonnull @pemdataraw, ptr noundef nonnull %1) #11
  %3 = icmp eq ptr %2, null
  br i1 %3, label %4, label %8

4:                                                ; preds = %0
  %5 = load ptr, ptr @global_lock, align 8, !tbaa !11
  %6 = call i32 @CRYPTO_THREAD_write_lock(ptr noundef %5) #11
  %7 = icmp eq i32 %6, 0
  store i1 false, ptr @multi_success, align 4
  br i1 %7, label %multi_set_success.exit, label %multi_set_success.exit.sink.split

8:                                                ; preds = %0
  %9 = load i64, ptr %1, align 8, !tbaa !12
  %10 = trunc i64 %9 to i32
  %11 = call ptr @BIO_new_mem_buf(ptr noundef nonnull %2, i32 noundef %10) #11
  %12 = icmp eq ptr %11, null
  br i1 %12, label %13, label %17

13:                                               ; preds = %8
  %14 = load ptr, ptr @global_lock, align 8, !tbaa !11
  %15 = call i32 @CRYPTO_THREAD_write_lock(ptr noundef %14) #11
  %16 = icmp eq i32 %15, 0
  store i1 false, ptr @multi_success, align 4
  br i1 %16, label %multi_set_success.exit, label %multi_set_success.exit.sink.split

17:                                               ; preds = %8
  %18 = call ptr @PEM_read_bio_PrivateKey(ptr noundef nonnull %11, ptr noundef null, ptr noundef null, ptr noundef null) #11
  %19 = icmp eq ptr %18, null
  br i1 %19, label %20, label %multi_set_success.exit

20:                                               ; preds = %17
  %21 = load ptr, ptr @global_lock, align 8, !tbaa !11
  %22 = call i32 @CRYPTO_THREAD_write_lock(ptr noundef %21) #11
  %23 = icmp eq i32 %22, 0
  store i1 false, ptr @multi_success, align 4
  br i1 %23, label %multi_set_success.exit, label %multi_set_success.exit.sink.split

multi_set_success.exit.sink.split:                ; preds = %20, %13, %4
  %.08.ph = phi ptr [ null, %4 ], [ null, %13 ], [ %11, %20 ]
  %24 = load ptr, ptr @global_lock, align 8, !tbaa !11
  %25 = call i32 @CRYPTO_THREAD_unlock(ptr noundef %24) #11
  br label %multi_set_success.exit

multi_set_success.exit:                           ; preds = %multi_set_success.exit.sink.split, %20, %13, %4, %17
  %.08 = phi ptr [ %11, %17 ], [ null, %4 ], [ null, %13 ], [ %11, %20 ], [ %.08.ph, %multi_set_success.exit.sink.split ]
  %.0 = phi ptr [ %18, %17 ], [ null, %4 ], [ null, %13 ], [ null, %20 ], [ null, %multi_set_success.exit.sink.split ]
  call void @EVP_PKEY_free(ptr noundef %.0) #11
  %26 = call i32 @BIO_free(ptr noundef %.08) #11
  call void @CRYPTO_free(ptr noundef %2, ptr noundef nonnull @.str.18, i32 noundef 1261) #11
  call void @llvm.lifetime.end.p0(i64 8, ptr nonnull %1) #11
  ret void
}